target datalayout = "e-m:e-p270:32:32-p271:32:32-p272:64:64-i64:64-i128:128-f80:128-n8:16:32:64-S128"
target triple = "x86_64-pc-linux-gnu"

%struct.SPS = type { i32, i32, i32, i32, i32, i32, i32, i32, i32, i32, i32, i32, i32, i32, i32, i32, i32, i32, i32, i32, i32, i32, i32, i32, i32, %struct.H2645VUI, i32, i32, i32, i32, [256 x i32], i32, i32, i32, i32, i16, [6 x [16 x i8]], [6 x [64 x i8]], i32, i32, i32, i32, i32, i32, [32 x i32], [32 x i32], i32, i32, i32, i32, i32, i32, i32, i32, [4096 x i8], i64 }
%struct.H2645VUI = type { %struct.AVRational, i32, i32, i32, i32, i32, i32, i32, i32, i32, i32, i32, i32, i32, i32, i32 }
%struct.AVRational = type { i32, i32 }

; Function Attrs: nounwind uwtable
define i32 @ff_h264_get_profile(ptr noundef %0) #0 {
  %2 = alloca ptr, align 8
  %3 = alloca i32, align 4
  store ptr %0, ptr %2, align 8, !tbaa !9
  call void @llvm.lifetime.start.p0(i64 4, ptr %3) #9
  %4 = load ptr, ptr %2, align 8, !tbaa !9
  %5 = getelementptr inbounds nuw %struct.SPS, ptr %4, i32 0, i32 1
  %6 = load i32, ptr %5, align 4, !tbaa !87
  store i32 %6, ptr %3, align 4, !tbaa !13
  %7 = load ptr, ptr %2, align 8, !tbaa !9
  %8 = getelementptr inbounds nuw %struct.SPS, ptr %7, i32 0, i32 1
  %9 = load i32, ptr %8, align 4, !tbaa !87
  switch i32 %9, label %28 [
    i32 66, label %10
    i32 110, label %19
    i32 122, label %19
    i32 244, label %19
  ]

10:                                               ; preds = %1
  %11 = load ptr, ptr %2, align 8, !tbaa !9
  %12 = getelementptr inbounds nuw %struct.SPS, ptr %11, i32 0, i32 53
  %13 = load i32, ptr %12, align 8, !tbaa !88
  %14 = and i32 %13, 2
  %15 = icmp ne i32 %14, 0
  %16 = select i1 %15, i32 512, i32 0
  %17 = load i32, ptr %3, align 4, !tbaa !13
  %18 = or i32 %17, %16
  store i32 %18, ptr %3, align 4, !tbaa !13
  br label %28

19:                                               ; preds = %1, %1, %1
  %20 = load ptr, ptr %2, align 8, !tbaa !9
  %21 = getelementptr inbounds nuw %struct.SPS, ptr %20, i32 0, i32 53
  %22 = load i32, ptr %21, align 8, !tbaa !88
  %23 = and i32 %22, 8
  %24 = icmp ne i32 %23, 0
  %25 = select i1 %24, i32 2048, i32 0
  %26 = load i32, ptr %3, align 4, !tbaa !13
  %27 = or i32 %26, %25
  store i32 %27, ptr %3, align 4, !tbaa !13
  br label %28

28:                                               ; preds = %1, %19, %10
  %29 = load i32, ptr %3, align 4, !tbaa !13
  call void @llvm.lifetime.end.p0(i64 4, ptr %3) #9
  ret i32 %29
}