; Function Attrs: mustprogress nofree norecurse nosync nounwind willreturn memory(argmem: read) uwtable
define i32 @ff_h264_get_profile(ptr noundef readonly captures(none) %0) local_unnamed_addr #4 {
  %2 = getelementptr inbounds nuw i8, ptr %0, i64 4
  %3 = load i32, ptr %2, align 4, !tbaa !71
  switch i32 %3, label %10 [
    i32 66, label %.sink.split
    i32 110, label %4
    i32 122, label %4
    i32 244, label %4
  ]

4:                                                ; preds = %1, %1, %1
  br label %.sink.split

.sink.split:                                      ; preds = %1, %4
  %.sink9 = phi i32 [ 2048, %4 ], [ 512, %1 ]
  %5 = getelementptr inbounds nuw i8, ptr %0, i64 2016
  %6 = load i32, ptr %5, align 8, !tbaa !72
  %7 = shl i32 %6, 8
  %8 = and i32 %7, %.sink9
  %9 = or i32 %8, %3
  br label %10

10:                                               ; preds = %.sink.split, %1
  %.0 = phi i32 [ %3, %1 ], [ %9, %.sink.split ]
  ret i32 %.0
}